; Function Attrs: mustprogress noreturn uwtable
define void @_ZN12ErrorHandler9ReadErrorEPKw(ptr nocapture noundef nonnull align 4 dereferenceable(14) %0, ptr nocapture noundef readnone %1) local_unnamed_addr #1 align 2 {
  tail call void @_Z7uiAlarm12UIALARM_TYPE(i32 noundef 0)
  store i32 12, ptr %0, align 4
  %3 = getelementptr inbounds i8, ptr %0, i64 4
  %4 = load i32, ptr %3, align 4
  %5 = add i32 %4, 1
  store i32 %5, ptr %3, align 4
  %6 = tail call ptr @__cxa_allocate_exception(i64 4) #15
  store i32 12, ptr %6, align 16
  tail call void @__cxa_throw(ptr nonnull %6, ptr nonnull @_ZTI8RAR_EXIT, ptr null) #16
  unreachable
}